; Function Attrs: nofree norecurse nosync nounwind memory(argmem: readwrite) uwtable
define internal void @SDL_Convert51To21(ptr noundef writeonly captures(none) %0, ptr noundef readonly captures(none) %1, i32 noundef %2) #5 {
  %.not21 = icmp eq i32 %2, 0
  br i1 %.not21, label %._crit_edge, label %.lr.ph

.lr.ph:                                           ; preds = %3, %.lr.ph
  %.024 = phi ptr [ %26, %.lr.ph ], [ %0, %3 ]
  %.01923 = phi ptr [ %25, %.lr.ph ], [ %1, %3 ]
  %.02022 = phi i32 [ %24, %.lr.ph ], [ %2, %3 ]
  %4 = getelementptr inbounds nuw i8, ptr %.01923, i64 8
  %5 = load float, ptr %4, align 4
  %6 = getelementptr inbounds nuw i8, ptr %.01923, i64 16
  %7 = load float, ptr %6, align 4
  %8 = getelementptr inbounds nuw i8, ptr %.01923, i64 20
  %9 = load float, ptr %8, align 4
  %10 = load float, ptr %.01923, align 4
  %11 = fmul float %5, 0x3FCD4FDF40000000
  %12 = tail call float @llvm.fmuladd.f32(float %10, float 0x3FD4BC6A80000000, float %11)
  %13 = tail call float @llvm.fmuladd.f32(float %7, float 0x3FD1BA5E40000000, float %12)
  %14 = tail call float @llvm.fmuladd.f32(float %9, float 0x3FC5C28F60000000, float %13)
  store float %14, ptr %.024, align 4
  %15 = getelementptr inbounds nuw i8, ptr %.01923, i64 4
  %16 = load float, ptr %15, align 4
  %17 = tail call float @llvm.fmuladd.f32(float %16, float 0x3FD4BC6A80000000, float %11)
  %18 = tail call float @llvm.fmuladd.f32(float %7, float 0x3FC5C28F60000000, float %17)
  %19 = tail call float @llvm.fmuladd.f32(float %9, float 0x3FD1BA5E40000000, float %18)
  %20 = getelementptr inbounds nuw i8, ptr %.024, i64 4
  store float %19, ptr %20, align 4
  %21 = getelementptr inbounds nuw i8, ptr %.01923, i64 12
  %22 = load float, ptr %21, align 4
  %23 = getelementptr inbounds nuw i8, ptr %.024, i64 8
  store float %22, ptr %23, align 4
  %24 = add nsw i32 %.02022, -1
  %25 = getelementptr inbounds nuw i8, ptr %.01923, i64 24
  %26 = getelementptr inbounds nuw i8, ptr %.024, i64 12
  %.not = icmp eq i32 %24, 0
  br i1 %.not, label %._crit_edge, label %.lr.ph, !llvm.loop !87

._crit_edge:                                      ; preds = %.lr.ph, %3
  ret void
}